target datalayout = "e-m:e-p270:32:32-p271:32:32-p272:64:64-i64:64-i128:128-f80:128-n8:16:32:64-S128"
target triple = "x86_64-pc-linux-gnu"

%struct.rdp_field_info_t = type { ptr, i32, ptr, i32, i32, ptr }

@hf_rdp_shareId = internal global i32 0, align 4
@hf_rdp_originatorId = internal global i32 0, align 4
@hf_rdp_lengthSourceDescriptor = internal global i32 0, align 4
@hf_rdp_lengthCombinedCapabilities = internal global i32 0, align 4
@hf_rdp_sourceDescriptor = internal global i32 0, align 4
@hf_rdp_numberCapabilities = internal global i32 0, align 4
@hf_rdp_pad2Octets = internal global i32 0, align 4

; Function Attrs: null_pointer_is_valid sspstrong uwtable
define internal i32 @dissect_rdp_confirmActivePDU(ptr noundef %0, i32 noundef %1, ptr noundef %2, ptr noundef %3) #0 {
  %5 = alloca ptr, align 8
  %6 = alloca i32, align 4
  %7 = alloca ptr, align 8
  %8 = alloca ptr, align 8
  %9 = alloca i32, align 4
  %10 = alloca i32, align 4
  %11 = alloca [8 x %struct.rdp_field_info_t], align 16
  store ptr %0, ptr %5, align 8
  store i32 %1, ptr %6, align 4
  store ptr %2, ptr %7, align 8
  store ptr %3, ptr %8, align 8
  call void @llvm.lifetime.start.p0(i64 4, ptr %9) #15
  call void @llvm.lifetime.start.p0(i64 4, ptr %10) #15
  store i32 0, ptr %10, align 4
  call void @llvm.lifetime.start.p0(i64 320, ptr %11) #15
  %12 = getelementptr inbounds nuw %struct.rdp_field_info_t, ptr %11, i32 0, i32 0
  store ptr @hf_rdp_shareId, ptr %12, align 8
  %13 = getelementptr inbounds nuw %struct.rdp_field_info_t, ptr %11, i32 0, i32 1
  store i32 4, ptr %13, align 8
  %14 = getelementptr i8, ptr %11, i64 12
  call void @llvm.memset.p0.i64(ptr align 4 %14, i8 0, i64 4, i1 false)
  %15 = getelementptr inbounds nuw %struct.rdp_field_info_t, ptr %11, i32 0, i32 2
  store ptr null, ptr %15, align 8
  %16 = getelementptr inbounds nuw %struct.rdp_field_info_t, ptr %11, i32 0, i32 3
  store i32 0, ptr %16, align 8
  %17 = getelementptr inbounds nuw %struct.rdp_field_info_t, ptr %11, i32 0, i32 4
  store i32 0, ptr %17, align 4
  %18 = getelementptr inbounds nuw %struct.rdp_field_info_t, ptr %11, i32 0, i32 5
  store ptr null, ptr %18, align 8
  %19 = getelementptr inbounds %struct.rdp_field_info_t, ptr %11, i64 1
  %20 = getelementptr inbounds nuw %struct.rdp_field_info_t, ptr %19, i32 0, i32 0
  store ptr @hf_rdp_originatorId, ptr %20, align 8
  %21 = getelementptr inbounds nuw %struct.rdp_field_info_t, ptr %19, i32 0, i32 1
  store i32 2, ptr %21, align 8
  %22 = getelementptr i8, ptr %19, i64 12
  call void @llvm.memset.p0.i64(ptr align 4 %22, i8 0, i64 4, i1 false)
  %23 = getelementptr inbounds nuw %struct.rdp_field_info_t, ptr %19, i32 0, i32 2
  store ptr null, ptr %23, align 8
  %24 = getelementptr inbounds nuw %struct.rdp_field_info_t, ptr %19, i32 0, i32 3
  store i32 0, ptr %24, align 8
  %25 = getelementptr inbounds nuw %struct.rdp_field_info_t, ptr %19, i32 0, i32 4
  store i32 0, ptr %25, align 4
  %26 = getelementptr inbounds nuw %struct.rdp_field_info_t, ptr %19, i32 0, i32 5
  store ptr null, ptr %26, align 8
  %27 = getelementptr inbounds %struct.rdp_field_info_t, ptr %11, i64 2
  %28 = getelementptr inbounds nuw %struct.rdp_field_info_t, ptr %27, i32 0, i32 0
  store ptr @hf_rdp_lengthSourceDescriptor, ptr %28, align 8
  %29 = getelementptr inbounds nuw %struct.rdp_field_info_t, ptr %27, i32 0, i32 1
  store i32 2, ptr %29, align 8
  %30 = getelementptr i8, ptr %27, i64 12
  call void @llvm.memset.p0.i64(ptr align 4 %30, i8 0, i64 4, i1 false)
  %31 = getelementptr inbounds nuw %struct.rdp_field_info_t, ptr %27, i32 0, i32 2
  store ptr %9, ptr %31, align 8
  %32 = getelementptr inbounds nuw %struct.rdp_field_info_t, ptr %27, i32 0, i32 3
  store i32 0, ptr %32, align 8
  %33 = getelementptr inbounds nuw %struct.rdp_field_info_t, ptr %27, i32 0, i32 4
  store i32 0, ptr %33, align 4
  %34 = getelementptr inbounds nuw %struct.rdp_field_info_t, ptr %27, i32 0, i32 5
  store ptr null, ptr %34, align 8
  %35 = getelementptr inbounds %struct.rdp_field_info_t, ptr %11, i64 3
  %36 = getelementptr inbounds nuw %struct.rdp_field_info_t, ptr %35, i32 0, i32 0
  store ptr @hf_rdp_lengthCombinedCapabilities, ptr %36, align 8
  %37 = getelementptr inbounds nuw %struct.rdp_field_info_t, ptr %35, i32 0, i32 1
  store i32 2, ptr %37, align 8
  %38 = getelementptr i8, ptr %35, i64 12
  call void @llvm.memset.p0.i64(ptr align 4 %38, i8 0, i64 4, i1 false)
  %39 = getelementptr inbounds nuw %struct.rdp_field_info_t, ptr %35, i32 0, i32 2
  store ptr null, ptr %39, align 8
  %40 = getelementptr inbounds nuw %struct.rdp_field_info_t, ptr %35, i32 0, i32 3
  store i32 0, ptr %40, align 8
  %41 = getelementptr inbounds nuw %struct.rdp_field_info_t, ptr %35, i32 0, i32 4
  store i32 0, ptr %41, align 4
  %42 = getelementptr inbounds nuw %struct.rdp_field_info_t, ptr %35, i32 0, i32 5
  store ptr null, ptr %42, align 8
  %43 = getelementptr inbounds %struct.rdp_field_info_t, ptr %11, i64 4
  %44 = getelementptr inbounds nuw %struct.rdp_field_info_t, ptr %43, i32 0, i32 0
  store ptr @hf_rdp_sourceDescriptor, ptr %44, align 8
  %45 = getelementptr inbounds nuw %struct.rdp_field_info_t, ptr %43, i32 0, i32 1
  store i32 0, ptr %45, align 8
  %46 = getelementptr i8, ptr %43, i64 12
  call void @llvm.memset.p0.i64(ptr align 4 %46, i8 0, i64 4, i1 false)
  %47 = getelementptr inbounds nuw %struct.rdp_field_info_t, ptr %43, i32 0, i32 2
  store ptr %9, ptr %47, align 8
  %48 = getelementptr inbounds nuw %struct.rdp_field_info_t, ptr %43, i32 0, i32 3
  store i32 0, ptr %48, align 8
  %49 = getelementptr inbounds nuw %struct.rdp_field_info_t, ptr %43, i32 0, i32 4
  store i32 0, ptr %49, align 4
  %50 = getelementptr inbounds nuw %struct.rdp_field_info_t, ptr %43, i32 0, i32 5
  store ptr null, ptr %50, align 8
  %51 = getelementptr inbounds %struct.rdp_field_info_t, ptr %11, i64 5
  %52 = getelementptr inbounds nuw %struct.rdp_field_info_t, ptr %51, i32 0, i32 0
  store ptr @hf_rdp_numberCapabilities, ptr %52, align 8
  %53 = getelementptr inbounds nuw %struct.rdp_field_info_t, ptr %51, i32 0, i32 1
  store i32 2, ptr %53, align 8
  %54 = getelementptr i8, ptr %51, i64 12
  call void @llvm.memset.p0.i64(ptr align 4 %54, i8 0, i64 4, i1 false)
  %55 = getelementptr inbounds nuw %struct.rdp_field_info_t, ptr %51, i32 0, i32 2
  store ptr %10, ptr %55, align 8
  %56 = getelementptr inbounds nuw %struct.rdp_field_info_t, ptr %51, i32 0, i32 3
  store i32 0, ptr %56, align 8
  %57 = getelementptr inbounds nuw %struct.rdp_field_info_t, ptr %51, i32 0, i32 4
  store i32 0, ptr %57, align 4
  %58 = getelementptr inbounds nuw %struct.rdp_field_info_t, ptr %51, i32 0, i32 5
  store ptr null, ptr %58, align 8
  %59 = getelementptr inbounds %struct.rdp_field_info_t, ptr %11, i64 6
  %60 = getelementptr inbounds nuw %struct.rdp_field_info_t, ptr %59, i32 0, i32 0
  store ptr @hf_rdp_pad2Octets, ptr %60, align 8
  %61 = getelementptr inbounds nuw %struct.rdp_field_info_t, ptr %59, i32 0, i32 1
  store i32 2, ptr %61, align 8
  %62 = getelementptr i8, ptr %59, i64 12
  call void @llvm.memset.p0.i64(ptr align 4 %62, i8 0, i64 4, i1 false)
  %63 = getelementptr inbounds nuw %struct.rdp_field_info_t, ptr %59, i32 0, i32 2
  store ptr null, ptr %63, align 8
  %64 = getelementptr inbounds nuw %struct.rdp_field_info_t, ptr %59, i32 0, i32 3
  store i32 0, ptr %64, align 8
  %65 = getelementptr inbounds nuw %struct.rdp_field_info_t, ptr %59, i32 0, i32 4
  store i32 0, ptr %65, align 4
  %66 = getelementptr inbounds nuw %struct.rdp_field_info_t, ptr %59, i32 0, i32 5
  store ptr null, ptr %66, align 8
  %67 = getelementptr inbounds %struct.rdp_field_info_t, ptr %11, i64 7
  call void @llvm.memset.p0.i64(ptr align 8 %67, i8 0, i64 40, i1 false)
  %68 = load ptr, ptr %5, align 8
  %69 = load i32, ptr %6, align 4
  %70 = load ptr, ptr %7, align 8
  %71 = load ptr, ptr %8, align 8
  %72 = getelementptr inbounds [8 x %struct.rdp_field_info_t], ptr %11, i64 0, i64 0
  %73 = call i32 @dissect_rdp_fields(ptr noundef %68, i32 noundef %69, ptr noundef %70, ptr noundef %71, ptr noundef %72, i32 noundef 0)
  store i32 %73, ptr %6, align 4
  %74 = load ptr, ptr %5, align 8
  %75 = load i32, ptr %6, align 4
  %76 = load ptr, ptr %7, align 8
  %77 = load ptr, ptr %8, align 8
  %78 = load i32, ptr %10, align 4
  %79 = call i32 @dissect_rdp_capabilitySets(ptr noundef %74, i32 noundef %75, ptr noundef %76, ptr noundef %77, i32 noundef %78)
  store i32 %79, ptr %6, align 4
  %80 = load i32, ptr %6, align 4
  call void @llvm.lifetime.end.p0(i64 320, ptr %11) #15
  call void @llvm.lifetime.end.p0(i64 4, ptr %10) #15
  call void @llvm.lifetime.end.p0(i64 4, ptr %9) #15
  ret i32 %80
}